; Function Attrs: mustprogress uwtable
define hidden void @_ZN4cvc58internal6theory4bags10TheoryBags7explainENS0_12NodeTemplateILb0EEE(ptr noalias sret(%"class.cvc5::internal::TrustNode") align 8 %agg.result, ptr noundef nonnull align 8 dereferenceable(2192) %this, ptr nocapture noundef readonly %node) unnamed_addr #3 align 2 personality ptr @__gxx_personality_v0 {
entry:
  %agg.tmp = alloca %"class.cvc5::internal::NodeTemplate.552", align 8
  %d_im = getelementptr inbounds i8, ptr %this, i64 816
  %0 = load ptr, ptr %node, align 8
  store ptr %0, ptr %agg.tmp, align 8
  call void @_ZN4cvc58internal6theory22TheoryInferenceManager10explainLitENS0_12NodeTemplateILb0EEE(ptr sret(%"class.cvc5::internal::TrustNode") align 8 %agg.result, ptr noundef nonnull align 8 dereferenceable(256) %d_im, ptr noundef nonnull %agg.tmp)
  ret void
}